target datalayout = "e-m:e-p270:32:32-p271:32:32-p272:64:64-i64:64-i128:128-f80:128-n8:16:32:64-S128"
target triple = "x86_64-pc-linux-gnu"

@stderr = external global ptr, align 8
@.str.72 = private unnamed_addr constant [23 x i8] c"wolfSSL error: %s: %s\0A\00", align 1

; Function Attrs: inlinehint noreturn nounwind uwtable
define internal void @err_sys_with_errno(ptr noundef %0) #9 {
  %2 = alloca ptr, align 8
  store ptr %0, ptr %2, align 8, !tbaa !15
  %3 = load ptr, ptr @stderr, align 8, !tbaa !17
  %4 = load ptr, ptr %2, align 8, !tbaa !15
  %5 = call ptr @__errno_location() #17
  %6 = load i32, ptr %5, align 4, !tbaa !9
  %7 = call ptr @strerror(i32 noundef %6) #13
  %8 = call i32 (ptr, ptr, ...) @fprintf(ptr noundef %3, ptr noundef @.str.72, ptr noundef %4, ptr noundef %7) #13
  call void @exit(i32 noundef 1) #16
  unreachable
}