; Function Attrs: cold inlinehint noreturn nounwind uwtable
define internal fastcc void @err_sys_with_errno(ptr noundef %0) unnamed_addr #12 {
  %2 = load ptr, ptr @stderr, align 8, !tbaa !8
  %3 = tail call ptr @__errno_location() #28
  %4 = load i32, ptr %3, align 4, !tbaa !4
  %5 = tail call ptr @strerror(i32 noundef %4) #21
  %6 = tail call i32 (ptr, ptr, ...) @fprintf(ptr noundef %2, ptr noundef nonnull @.str.72, ptr noundef %0, ptr noundef %5) #22
  tail call void @exit(i32 noundef 1) #27
  unreachable
}